target datalayout = "e-m:e-p270:32:32-p271:32:32-p272:64:64-i64:64-i128:128-f80:128-n8:16:32:64-S128"
target triple = "x86_64-pc-linux-gnu"

%struct.object_id = type { [32 x i8], i32 }
%struct.commit = type { %struct.object, i64, ptr, ptr, i32 }
%struct.object = type { i32, %struct.object_id }

; Function Attrs: nounwind uwtable
define internal i32 @commit_date_cmp(ptr noundef %0, ptr noundef %1) #0 {
  %3 = alloca i32, align 4
  %4 = alloca ptr, align 8
  %5 = alloca ptr, align 8
  %6 = alloca i64, align 8
  %7 = alloca i64, align 8
  %8 = alloca i32, align 4
  store ptr %0, ptr %4, align 8, !tbaa !35
  store ptr %1, ptr %5, align 8, !tbaa !35
  call void @llvm.lifetime.start.p0(i64 8, ptr %6) #10
  %9 = load ptr, ptr %4, align 8, !tbaa !35
  %10 = load ptr, ptr %9, align 8, !tbaa !86
  %11 = getelementptr inbounds nuw %struct.commit, ptr %10, i32 0, i32 1
  %12 = load i64, ptr %11, align 8, !tbaa !97
  store i64 %12, ptr %6, align 8, !tbaa !36
  call void @llvm.lifetime.start.p0(i64 8, ptr %7) #10
  %13 = load ptr, ptr %5, align 8, !tbaa !35
  %14 = load ptr, ptr %13, align 8, !tbaa !86
  %15 = getelementptr inbounds nuw %struct.commit, ptr %14, i32 0, i32 1
  %16 = load i64, ptr %15, align 8, !tbaa !97
  store i64 %16, ptr %7, align 8, !tbaa !36
  %17 = load i64, ptr %6, align 8, !tbaa !36
  %18 = load i64, ptr %7, align 8, !tbaa !36
  %19 = icmp ult i64 %17, %18
  br i1 %19, label %20, label %21

20:                                               ; preds = %2
  store i32 -1, ptr %3, align 4
  store i32 1, ptr %8, align 4
  br label %28

21:                                               ; preds = %2
  %22 = load i64, ptr %6, align 8, !tbaa !36
  %23 = load i64, ptr %7, align 8, !tbaa !36
  %24 = icmp ugt i64 %22, %23
  br i1 %24, label %25, label %26

25:                                               ; preds = %21
  store i32 1, ptr %3, align 4
  store i32 1, ptr %8, align 4
  br label %28

26:                                               ; preds = %21
  br label %27

27:                                               ; preds = %26
  store i32 0, ptr %3, align 4
  store i32 1, ptr %8, align 4
  br label %28

28:                                               ; preds = %27, %25, %20
  call void @llvm.lifetime.end.p0(i64 8, ptr %7) #10
  call void @llvm.lifetime.end.p0(i64 8, ptr %6) #10
  %29 = load i32, ptr %3, align 4
  ret i32 %29
}